target datalayout = "e-m:e-p270:32:32-p271:32:32-p272:64:64-i64:64-f80:128-n8:16:32:64-S128"
target triple = "x86_64-pc-linux-gnu"

@.str = private unnamed_addr constant [3 x i8] c"%d\00", align 1
@.str.1 = private unnamed_addr constant [2 x i8] c" \00", align 1
@.str.2 = private unnamed_addr constant [5 x i8] c"%d%d\00", align 1

; Function Attrs: noinline nounwind uwtable
define dso_local void @sort(i32* %0, i32 %1) #0 {
  %3 = alloca i32*, align 8
  %4 = alloca i32, align 4
  %5 = alloca i32, align 4
  %6 = alloca i32, align 4
  %7 = alloca i32, align 4
  store i32* %0, i32** %3, align 8
  store i32 %1, i32* %4, align 4
  store i32 1, i32* %5, align 4
  br label %8

8:                                                ; preds = %60, %2
  %9 = load i32, i32* %5, align 4
  %10 = load i32, i32* %4, align 4
  %11 = sub nsw i32 %10, 1
  %12 = icmp sle i32 %9, %11
  br i1 %12, label %13, label %63

13:                                               ; preds = %8
  store i32 1, i32* %6, align 4
  br label %14

14:                                               ; preds = %56, %13
  %15 = load i32, i32* %6, align 4
  %16 = load i32, i32* %4, align 4
  %17 = load i32, i32* %5, align 4
  %18 = sub nsw i32 %16, %17
  %19 = icmp sle i32 %15, %18
  br i1 %19, label %20, label %59

20:                                               ; preds = %14
  %21 = load i32*, i32** %3, align 8
  %22 = load i32, i32* %6, align 4
  %23 = sext i32 %22 to i64
  %24 = getelementptr inbounds i32, i32* %21, i64 %23
  %25 = load i32, i32* %24, align 4
  %26 = load i32*, i32** %3, align 8
  %27 = load i32, i32* %6, align 4
  %28 = add nsw i32 %27, 1
  %29 = sext i32 %28 to i64
  %30 = getelementptr inbounds i32, i32* %26, i64 %29
  %31 = load i32, i32* %30, align 4
  %32 = icmp sgt i32 %25, %31
  br i1 %32, label %33, label %55

33:                                               ; preds = %20
  %34 = load i32*, i32** %3, align 8
  %35 = load i32, i32* %6, align 4
  %36 = sext i32 %35 to i64
  %37 = getelementptr inbounds i32, i32* %34, i64 %36
  %38 = load i32, i32* %37, align 4
  store i32 %38, i32* %7, align 4
  %39 = load i32*, i32** %3, align 8
  %40 = load i32, i32* %6, align 4
  %41 = add nsw i32 %40, 1
  %42 = sext i32 %41 to i64
  %43 = getelementptr inbounds i32, i32* %39, i64 %42
  %44 = load i32, i32* %43, align 4
  %45 = load i32*, i32** %3, align 8
  %46 = load i32, i32* %6, align 4
  %47 = sext i32 %46 to i64
  %48 = getelementptr inbounds i32, i32* %45, i64 %47
  store i32 %44, i32* %48, align 4
  %49 = load i32, i32* %7, align 4
  %50 = load i32*, i32** %3, align 8
  %51 = load i32, i32* %6, align 4
  %52 = add nsw i32 %51, 1
  %53 = sext i32 %52 to i64
  %54 = getelementptr inbounds i32, i32* %50, i64 %53
  store i32 %49, i32* %54, align 4
  br label %55

55:                                               ; preds = %33, %20
  br label %56

56:                                               ; preds = %55
  %57 = load i32, i32* %6, align 4
  %58 = add nsw i32 %57, 1
  store i32 %58, i32* %6, align 4
  br label %14

59:                                               ; preds = %14
  br label %60

60:                                               ; preds = %59
  %61 = load i32, i32* %5, align 4
  %62 = add nsw i32 %61, 1
  store i32 %62, i32* %5, align 4
  br label %8

63:                                               ; preds = %8
  ret void
}

; Function Attrs: noinline nounwind uwtable
define dso_local void @ipt(i32* %0, i32 %1) #0 {
  %3 = alloca i32*, align 8
  %4 = alloca i32, align 4
  %5 = alloca i32, align 4
  store i32* %0, i32** %3, align 8
  store i32 %1, i32* %4, align 4
  store i32 1, i32* %5, align 4
  br label %6

6:                                                ; preds = %21, %2
  %7 = load i32, i32* %5, align 4
  %8 = load i32, i32* %4, align 4
  %9 = icmp sle i32 %7, %8
  br i1 %9, label %10, label %24

10:                                               ; preds = %6
  %11 = load i32*, i32** %3, align 8
  %12 = load i32, i32* %5, align 4
  %13 = sext i32 %12 to i64
  %14 = getelementptr inbounds i32, i32* %11, i64 %13
  %15 = call i32 (i8*, ...) @__isoc99_scanf(i8* getelementptr inbounds ([3 x i8], [3 x i8]* @.str, i64 0, i64 0), i32* %14)
  %16 = load i32, i32* %5, align 4
  %17 = load i32, i32* %4, align 4
  %18 = icmp ne i32 %16, %17
  br i1 %18, label %19, label %21

19:                                               ; preds = %10
  %20 = call i32 (i8*, ...) @__isoc99_scanf(i8* getelementptr inbounds ([2 x i8], [2 x i8]* @.str.1, i64 0, i64 0))
  br label %21

21:                                               ; preds = %19, %10
  %22 = load i32, i32* %5, align 4
  %23 = add nsw i32 %22, 1
  store i32 %23, i32* %5, align 4
  br label %6

24:                                               ; preds = %6
  ret void
}

; Function Attrs: noinline nounwind uwtable
define dso_local void @opt(i32* %0, i32 %1) #0 {
  %3 = alloca i32*, align 8
  %4 = alloca i32, align 4
  %5 = alloca i32, align 4
  store i32* %0, i32** %3, align 8
  store i32 %1, i32* %4, align 4
  store i32 1, i32* %5, align 4
  br label %6

6:                                                ; preds = %22, %2
  %7 = load i32, i32* %5, align 4
  %8 = load i32, i32* %4, align 4
  %9 = icmp sle i32 %7, %8
  br i1 %9, label %10, label %25

10:                                               ; preds = %6
  %11 = load i32*, i32** %3, align 8
  %12 = load i32, i32* %5, align 4
  %13 = sext i32 %12 to i64
  %14 = getelementptr inbounds i32, i32* %11, i64 %13
  %15 = load i32, i32* %14, align 4
  %16 = call i32 (i8*, ...) @printf(i8* getelementptr inbounds ([3 x i8], [3 x i8]* @.str, i64 0, i64 0), i32 %15)
  %17 = load i32, i32* %5, align 4
  %18 = load i32, i32* %4, align 4
  %19 = icmp ne i32 %17, %18
  br i1 %19, label %20, label %22

20:                                               ; preds = %10
  %21 = call i32 (i8*, ...) @printf(i8* getelementptr inbounds ([2 x i8], [2 x i8]* @.str.1, i64 0, i64 0))
  br label %22

22:                                               ; preds = %20, %10
  %23 = load i32, i32* %5, align 4
  %24 = add nsw i32 %23, 1
  store i32 %24, i32* %5, align 4
  br label %6

25:                                               ; preds = %6
  ret void
}

; Function Attrs: noinline nounwind uwtable
define dso_local i32 @main() #0 {
  %1 = alloca i32, align 4
  %2 = alloca i32, align 4
  %3 = alloca [100 x i32], align 16
  %4 = alloca [100 x i32], align 16
  %5 = call i32 (i8*, ...) @__isoc99_scanf(i8* getelementptr inbounds ([5 x i8], [5 x i8]* @.str.2, i64 0, i64 0), i32* %1, i32* %2)
  %6 = getelementptr inbounds [100 x i32], [100 x i32]* %3, i64 0, i64 0
  %7 = load i32, i32* %1, align 4
  call void @ipt(i32* %6, i32 %7)
  %8 = getelementptr inbounds [100 x i32], [100 x i32]* %4, i64 0, i64 0
  %9 = load i32, i32* %2, align 4
  call void @ipt(i32* %8, i32 %9)
  %10 = getelementptr inbounds [100 x i32], [100 x i32]* %3, i64 0, i64 0
  %11 = load i32, i32* %1, align 4
  call void @sort(i32* %10, i32 %11)
  %12 = getelementptr inbounds [100 x i32], [100 x i32]* %4, i64 0, i64 0
  %13 = load i32, i32* %2, align 4
  call void @sort(i32* %12, i32 %13)
  %14 = getelementptr inbounds [100 x i32], [100 x i32]* %3, i64 0, i64 0
  %15 = load i32, i32* %1, align 4
  call void @opt(i32* %14, i32 %15)
  %16 = call i32 (i8*, ...) @printf(i8* getelementptr inbounds ([2 x i8], [2 x i8]* @.str.1, i64 0, i64 0))
  %17 = getelementptr inbounds [100 x i32], [100 x i32]* %4, i64 0, i64 0
  %18 = load i32, i32* %2, align 4
  call void @opt(i32* %17, i32 %18)
  ret i32 0
}